; ModuleID = '50/1601.c'
source_filename = "50/1601.c"
target datalayout = "e-m:e-p270:32:32-p271:32:32-p272:64:64-i64:64-f80:128-n8:16:32:64-S128"
target triple = "x86_64-pc-linux-gnu"

@.str = private unnamed_addr constant [3 x i8] c"%d\00", align 1
@__const.main.yf = private unnamed_addr constant [12 x i32] [i32 31, i32 28, i32 31, i32 30, i32 31, i32 30, i32 31, i32 31, i32 30, i32 31, i32 30, i32 31], align 16
@.str.1 = private unnamed_addr constant [3 x i8] c"1\0A\00", align 1
@.str.2 = private unnamed_addr constant [4 x i8] c"%d\0A\00", align 1

; Function Attrs: noinline nounwind uwtable
define dso_local i32 @main() #0 {
  %1 = alloca i32, align 4
  %2 = alloca i32, align 4
  %3 = alloca i32, align 4
  %4 = alloca i32, align 4
  %5 = alloca i32, align 4
  %6 = alloca i32, align 4
  %7 = alloca [12 x i32], align 16
  store i32 0, i32* %1, align 4
  store i32 12, i32* %4, align 4
  %8 = call i32 (i8*, ...) @__isoc99_scanf(i8* getelementptr inbounds ([3 x i8], [3 x i8]* @.str, i64 0, i64 0), i32* %3)
  %9 = bitcast [12 x i32]* %7 to i8*
  call void @llvm.memcpy.p0i8.p0i8.i64(i8* align 16 %9, i8* align 16 bitcast ([12 x i32]* @__const.main.yf to i8*), i64 48, i1 false)
  %10 = load i32, i32* %3, align 4
  %11 = icmp eq i32 %10, 7
  br i1 %11, label %12, label %14

12:                                               ; preds = %0
  %13 = call i32 (i8*, ...) @printf(i8* getelementptr inbounds ([3 x i8], [3 x i8]* @.str.1, i64 0, i64 0))
  br label %14

14:                                               ; preds = %12, %0
  store i32 0, i32* %2, align 4
  br label %15

15:                                               ; preds = %54, %14
  %16 = load i32, i32* %2, align 4
  %17 = icmp slt i32 %16, 11
  br i1 %17, label %18, label %57

18:                                               ; preds = %15
  %19 = load i32, i32* %2, align 4
  %20 = sext i32 %19 to i64
  %21 = getelementptr inbounds [12 x i32], [12 x i32]* %7, i64 0, i64 %20
  %22 = load i32, i32* %21, align 4
  %23 = load i32, i32* %4, align 4
  %24 = add nsw i32 %23, %22
  store i32 %24, i32* %4, align 4
  %25 = load i32, i32* %4, align 4
  %26 = srem i32 %25, 7
  store i32 %26, i32* %5, align 4
  %27 = load i32, i32* %3, align 4
  %28 = load i32, i32* %5, align 4
  %29 = add nsw i32 %27, %28
  %30 = icmp sle i32 %29, 7
  br i1 %30, label %31, label %41

31:                                               ; preds = %18
  %32 = load i32, i32* %3, align 4
  %33 = load i32, i32* %5, align 4
  %34 = add nsw i32 %32, %33
  %35 = icmp eq i32 %34, 5
  br i1 %35, label %36, label %40

36:                                               ; preds = %31
  %37 = load i32, i32* %2, align 4
  %38 = add nsw i32 %37, 2
  %39 = call i32 (i8*, ...) @printf(i8* getelementptr inbounds ([4 x i8], [4 x i8]* @.str.2, i64 0, i64 0), i32 %38)
  br label %40

40:                                               ; preds = %36, %31
  br label %53

41:                                               ; preds = %18
  %42 = load i32, i32* %3, align 4
  %43 = load i32, i32* %5, align 4
  %44 = add nsw i32 %42, %43
  %45 = sub nsw i32 %44, 7
  store i32 %45, i32* %6, align 4
  %46 = load i32, i32* %6, align 4
  %47 = icmp eq i32 %46, 5
  br i1 %47, label %48, label %52

48:                                               ; preds = %41
  %49 = load i32, i32* %2, align 4
  %50 = add nsw i32 %49, 2
  %51 = call i32 (i8*, ...) @printf(i8* getelementptr inbounds ([4 x i8], [4 x i8]* @.str.2, i64 0, i64 0), i32 %50)
  br label %52

52:                                               ; preds = %48, %41
  br label %53

53:                                               ; preds = %52, %40
  br label %54

54:                                               ; preds = %53
  %55 = load i32, i32* %2, align 4
  %56 = add nsw i32 %55, 1
  store i32 %56, i32* %2, align 4
  br label %15

57:                                               ; preds = %15
  ret i32 0
}

declare dso_local i32 @__isoc99_scanf(i8*, ...) #1

; Function Attrs: argmemonly nounwind willreturn
declare void @llvm.memcpy.p0i8.p0i8.i64(i8* noalias nocapture writeonly, i8* noalias nocapture readonly, i64, i1 immarg) #2

declare dso_local i32 @printf(i8*, ...) #1


!llvm.module.flags = !{!0}
!llvm.ident = !{!1}

!0 = !{i32 1, !"wchar_size", i32 4}
!1 = !{!"clang version 10.0.0-4ubuntu1 "}
